target datalayout = "e-m:e-p270:32:32-p271:32:32-p272:64:64-i64:64-i128:128-f80:128-n8:16:32:64-S128"
target triple = "x86_64-pc-linux-gnu"

%struct.MLZ = type { i32, i32, i32, i32, i32, i32, ptr, ptr }
%struct.MLZDict = type { i32, i32, i32, i32 }

; Function Attrs: cold nounwind optsize uwtable
define void @ff_mlz_flush_dict(ptr noundef %0) #0 {
  %2 = alloca ptr, align 8
  %3 = alloca ptr, align 8
  %4 = alloca i32, align 4
  store ptr %0, ptr %2, align 8, !tbaa !8
  call void @llvm.lifetime.start.p0(i64 8, ptr %3) #5
  %5 = load ptr, ptr %2, align 8, !tbaa !8
  %6 = getelementptr inbounds nuw %struct.MLZ, ptr %5, i32 0, i32 6
  %7 = load ptr, ptr %6, align 8, !tbaa !10
  store ptr %7, ptr %3, align 8, !tbaa !21
  call void @llvm.lifetime.start.p0(i64 4, ptr %4) #5
  store i32 0, ptr %4, align 4, !tbaa !22
  br label %8

8:                                                ; preds = %27, %1
  %9 = load i32, ptr %4, align 4, !tbaa !22
  %10 = icmp slt i32 %9, 35023
  br i1 %10, label %11, label %30

11:                                               ; preds = %8
  %12 = load ptr, ptr %3, align 8, !tbaa !21
  %13 = load i32, ptr %4, align 4, !tbaa !22
  %14 = sext i32 %13 to i64
  %15 = getelementptr inbounds %struct.MLZDict, ptr %12, i64 %14
  %16 = getelementptr inbounds nuw %struct.MLZDict, ptr %15, i32 0, i32 0
  store i32 -1, ptr %16, align 4, !tbaa !23
  %17 = load ptr, ptr %3, align 8, !tbaa !21
  %18 = load i32, ptr %4, align 4, !tbaa !22
  %19 = sext i32 %18 to i64
  %20 = getelementptr inbounds %struct.MLZDict, ptr %17, i64 %19
  %21 = getelementptr inbounds nuw %struct.MLZDict, ptr %20, i32 0, i32 1
  store i32 -1, ptr %21, align 4, !tbaa !25
  %22 = load ptr, ptr %3, align 8, !tbaa !21
  %23 = load i32, ptr %4, align 4, !tbaa !22
  %24 = sext i32 %23 to i64
  %25 = getelementptr inbounds %struct.MLZDict, ptr %22, i64 %24
  %26 = getelementptr inbounds nuw %struct.MLZDict, ptr %25, i32 0, i32 3
  store i32 0, ptr %26, align 4, !tbaa !26
  br label %27

27:                                               ; preds = %11
  %28 = load i32, ptr %4, align 4, !tbaa !22
  %29 = add nsw i32 %28, 1
  store i32 %29, ptr %4, align 4, !tbaa !22
  br label %8, !llvm.loop !27

30:                                               ; preds = %8
  %31 = load ptr, ptr %2, align 8, !tbaa !8
  %32 = getelementptr inbounds nuw %struct.MLZ, ptr %31, i32 0, i32 1
  store i32 512, ptr %32, align 4, !tbaa !15
  %33 = load ptr, ptr %2, align 8, !tbaa !8
  %34 = getelementptr inbounds nuw %struct.MLZ, ptr %33, i32 0, i32 0
  store i32 9, ptr %34, align 8, !tbaa !16
  %35 = load ptr, ptr %2, align 8, !tbaa !8
  %36 = getelementptr inbounds nuw %struct.MLZ, ptr %35, i32 0, i32 1
  %37 = load i32, ptr %36, align 4, !tbaa !15
  %38 = sub nsw i32 %37, 1
  %39 = load ptr, ptr %2, align 8, !tbaa !8
  %40 = getelementptr inbounds nuw %struct.MLZ, ptr %39, i32 0, i32 2
  store i32 %38, ptr %40, align 8, !tbaa !17
  %41 = load ptr, ptr %2, align 8, !tbaa !8
  %42 = getelementptr inbounds nuw %struct.MLZ, ptr %41, i32 0, i32 4
  store i32 258, ptr %42, align 8, !tbaa !18
  %43 = load ptr, ptr %2, align 8, !tbaa !8
  %44 = getelementptr inbounds nuw %struct.MLZ, ptr %43, i32 0, i32 5
  store i32 0, ptr %44, align 4, !tbaa !19
  call void @llvm.lifetime.end.p0(i64 4, ptr %4) #5
  call void @llvm.lifetime.end.p0(i64 8, ptr %3) #5
  ret void
}