; Function Attrs: cold nofree norecurse nosync nounwind optsize memory(write, argmem: readwrite, inaccessiblemem: none) uwtable
define void @ff_mlz_flush_dict(ptr noundef captures(none) %0) local_unnamed_addr #2 {
  %2 = getelementptr inbounds nuw i8, ptr %0, i64 24
  %3 = load ptr, ptr %2, align 8, !tbaa !4
  br label %4

4:                                                ; preds = %1, %4
  %indvars.iv = phi i64 [ 0, %1 ], [ %indvars.iv.next, %4 ]
  %5 = getelementptr inbounds nuw %struct.MLZDict, ptr %3, i64 %indvars.iv
  store i32 -1, ptr %5, align 4, !tbaa !18
  %6 = getelementptr inbounds nuw i8, ptr %5, i64 4
  store i32 -1, ptr %6, align 4, !tbaa !20
  %7 = getelementptr inbounds nuw i8, ptr %5, i64 12
  store i32 0, ptr %7, align 4, !tbaa !21
  %indvars.iv.next = add nuw nsw i64 %indvars.iv, 1
  %exitcond.not = icmp eq i64 %indvars.iv.next, 35023
  br i1 %exitcond.not, label %8, label %4, !llvm.loop !22

8:                                                ; preds = %4
  %9 = getelementptr inbounds nuw i8, ptr %0, i64 4
  store i32 512, ptr %9, align 4, !tbaa !12
  store i32 9, ptr %0, align 8, !tbaa !13
  %10 = getelementptr inbounds nuw i8, ptr %0, i64 8
  store i32 511, ptr %10, align 8, !tbaa !14
  %11 = getelementptr inbounds nuw i8, ptr %0, i64 16
  store i32 258, ptr %11, align 8, !tbaa !15
  %12 = getelementptr inbounds nuw i8, ptr %0, i64 20
  store i32 0, ptr %12, align 4, !tbaa !16
  ret void
}